target datalayout = "e-m:e-p270:32:32-p271:32:32-p272:64:64-i64:64-i128:128-f80:128-n8:16:32:64-S128"
target triple = "x86_64-pc-linux-gnu"

%"class.icu_77::RBBINode" = type { i32, ptr, ptr, ptr, ptr, i32, %"class.icu_77::UnicodeString", i32, i32, i8, i32, i8, i8, i8, ptr, ptr, ptr }
%"class.icu_77::UnicodeString" = type { %"class.icu_77::Replaceable", %"union.icu_77::UnicodeString::StackBufferOrFields" }
%"class.icu_77::Replaceable" = type { %"class.icu_77::UObject" }
%"class.icu_77::UObject" = type { ptr }
%"union.icu_77::UnicodeString::StackBufferOrFields" = type { %struct.anon.0, [32 x i8] }
%struct.anon.0 = type { i16, i32, i32, ptr }

@_ZN6icu_778RBBINodeC1ERKS0_R10UErrorCode = unnamed_addr alias void (ptr, ptr, ptr), ptr @_ZN6icu_778RBBINodeC2ERKS0_R10UErrorCode
@_ZN6icu_778RBBINodeD1Ev = unnamed_addr alias void (ptr), ptr @_ZN6icu_778RBBINodeD2Ev

; Function Attrs: inlinehint mustprogress nounwind uwtable
define internal noundef signext i8 @_ZL9U_FAILURE10UErrorCode(i32 noundef %0) #2 {
  %2 = alloca i32, align 4
  store i32 %0, ptr %2, align 4, !tbaa !15
  %3 = load i32, ptr %2, align 4, !tbaa !15
  %4 = icmp sgt i32 %3, 0
  %5 = zext i1 %4 to i8
  ret i8 %5
}

; Function Attrs: mustprogress uwtable
define noundef ptr @_ZN6icu_778RBBINode9cloneTreeER10UErrorCodei(ptr noundef nonnull align 8 dereferenceable(160) %0, ptr noundef nonnull align 4 dereferenceable(4) %1, i32 noundef %2) #1 align 2 personality ptr @__gxx_personality_v0 {
  %4 = alloca ptr, align 8
  %5 = alloca ptr, align 8
  %6 = alloca ptr, align 8
  %7 = alloca i32, align 4
  %8 = alloca ptr, align 8
  %9 = alloca i32, align 4
  %10 = alloca ptr, align 8
  %11 = alloca i1, align 1
  %12 = alloca ptr, align 8
  %13 = alloca i32, align 4
  store ptr %0, ptr %5, align 8, !tbaa !23
  store ptr %1, ptr %6, align 8, !tbaa !22
  store i32 %2, ptr %7, align 4, !tbaa !14
  %14 = load ptr, ptr %5, align 8
  %15 = load ptr, ptr %6, align 8, !tbaa !22
  %16 = load i32, ptr %15, align 4, !tbaa !15
  %17 = call noundef signext i8 @_ZL9U_FAILURE10UErrorCode(i32 noundef %16)
  %18 = icmp ne i8 %17, 0
  br i1 %18, label %19, label %20

19:                                               ; preds = %3
  store ptr null, ptr %4, align 8
  br label %138

20:                                               ; preds = %3
  %21 = load i32, ptr %7, align 4, !tbaa !14
  %22 = icmp sgt i32 %21, 3500
  br i1 %22, label %23, label %25

23:                                               ; preds = %20
  %24 = load ptr, ptr %6, align 8, !tbaa !22
  store i32 31, ptr %24, align 4, !tbaa !15
  store ptr null, ptr %4, align 8
  br label %138

25:                                               ; preds = %20
  call void @llvm.lifetime.start.p0(i64 8, ptr %8) #10
  %26 = getelementptr inbounds nuw %"class.icu_77::RBBINode", ptr %14, i32 0, i32 0
  %27 = load i32, ptr %26, align 8, !tbaa !27
  %28 = icmp eq i32 %27, 2
  br i1 %28, label %29, label %42

29:                                               ; preds = %25
  %30 = getelementptr inbounds nuw %"class.icu_77::RBBINode", ptr %14, i32 0, i32 2
  %31 = load ptr, ptr %30, align 8, !tbaa !36
  %32 = load ptr, ptr %6, align 8, !tbaa !22
  %33 = load i32, ptr %7, align 4, !tbaa !14
  %34 = add nsw i32 %33, 1
  %35 = call noundef ptr @_ZN6icu_778RBBINode9cloneTreeER10UErrorCodei(ptr noundef nonnull align 8 dereferenceable(160) %31, ptr noundef nonnull align 4 dereferenceable(4) %32, i32 noundef %34)
  store ptr %35, ptr %8, align 8, !tbaa !23
  %36 = load ptr, ptr %6, align 8, !tbaa !22
  %37 = load i32, ptr %36, align 4, !tbaa !15
  %38 = call noundef signext i8 @_ZL9U_FAILURE10UErrorCode(i32 noundef %37)
  %39 = icmp ne i8 %38, 0
  br i1 %39, label %40, label %41

40:                                               ; preds = %29
  store ptr null, ptr %4, align 8
  store i32 1, ptr %9, align 4
  br label %137

41:                                               ; preds = %29
  br label %135

42:                                               ; preds = %25
  %43 = getelementptr inbounds nuw %"class.icu_77::RBBINode", ptr %14, i32 0, i32 0
  %44 = load i32, ptr %43, align 8, !tbaa !27
  %45 = icmp eq i32 %44, 1
  br i1 %45, label %46, label %47

46:                                               ; preds = %42
  store ptr %14, ptr %8, align 8, !tbaa !23
  br label %134

47:                                               ; preds = %42
  %48 = call noundef ptr @_ZN6icu_777UMemorynwEm(i64 noundef 160) #10
  %49 = icmp eq ptr %48, null
  store i1 false, ptr %11, align 1
  br i1 %49, label %53, label %50

50:                                               ; preds = %47
  store ptr %48, ptr %10, align 8
  store i1 true, ptr %11, align 1
  %51 = load ptr, ptr %6, align 8, !tbaa !22
  invoke void @_ZN6icu_778RBBINodeC1ERKS0_R10UErrorCode(ptr noundef nonnull align 8 dereferenceable(160) %48, ptr noundef nonnull align 8 dereferenceable(160) %14, ptr noundef nonnull align 4 dereferenceable(4) %51)
          to label %52 unwind label %64

52:                                               ; preds = %50
  br label %53

53:                                               ; preds = %52, %47
  %54 = phi ptr [ %48, %52 ], [ null, %47 ]
  store ptr %54, ptr %8, align 8, !tbaa !23
  %55 = load ptr, ptr %6, align 8, !tbaa !22
  %56 = load i32, ptr %55, align 4, !tbaa !15
  %57 = call noundef signext i8 @_ZL9U_FAILURE10UErrorCode(i32 noundef %56)
  %58 = icmp ne i8 %57, 0
  br i1 %58, label %59, label %72

59:                                               ; preds = %53
  %60 = load ptr, ptr %8, align 8, !tbaa !23
  %61 = icmp eq ptr %60, null
  br i1 %61, label %63, label %62

62:                                               ; preds = %59
  call void @_ZN6icu_778RBBINodeD1Ev(ptr noundef nonnull align 8 dereferenceable(160) %60) #10
  call void @_ZN6icu_777UMemorydlEPv(ptr noundef %60) #10
  br label %63

63:                                               ; preds = %62, %59
  store ptr null, ptr %4, align 8
  store i32 1, ptr %9, align 4
  br label %137

64:                                               ; preds = %50
  %65 = landingpad { ptr, i32 }
          cleanup
  %66 = extractvalue { ptr, i32 } %65, 0
  store ptr %66, ptr %12, align 8
  %67 = extractvalue { ptr, i32 } %65, 1
  store i32 %67, ptr %13, align 4
  %68 = load i1, ptr %11, align 1
  br i1 %68, label %69, label %71

69:                                               ; preds = %64
  %70 = load ptr, ptr %10, align 8
  call void @_ZN6icu_777UMemorydlEPv(ptr noundef %70) #10
  br label %71

71:                                               ; preds = %69, %64
  call void @llvm.lifetime.end.p0(i64 8, ptr %8) #10
  br label %140

72:                                               ; preds = %53
  %73 = load ptr, ptr %8, align 8, !tbaa !23
  %74 = icmp eq ptr %73, null
  br i1 %74, label %75, label %77

75:                                               ; preds = %72
  %76 = load ptr, ptr %6, align 8, !tbaa !22
  store i32 7, ptr %76, align 4, !tbaa !15
  store ptr null, ptr %4, align 8
  store i32 1, ptr %9, align 4
  br label %137

77:                                               ; preds = %72
  %78 = getelementptr inbounds nuw %"class.icu_77::RBBINode", ptr %14, i32 0, i32 2
  %79 = load ptr, ptr %78, align 8, !tbaa !36
  %80 = icmp ne ptr %79, null
  br i1 %80, label %81, label %105

81:                                               ; preds = %77
  %82 = getelementptr inbounds nuw %"class.icu_77::RBBINode", ptr %14, i32 0, i32 2
  %83 = load ptr, ptr %82, align 8, !tbaa !36
  %84 = load ptr, ptr %6, align 8, !tbaa !22
  %85 = load i32, ptr %7, align 4, !tbaa !14
  %86 = add nsw i32 %85, 1
  %87 = call noundef ptr @_ZN6icu_778RBBINode9cloneTreeER10UErrorCodei(ptr noundef nonnull align 8 dereferenceable(160) %83, ptr noundef nonnull align 4 dereferenceable(4) %84, i32 noundef %86)
  %88 = load ptr, ptr %8, align 8, !tbaa !23
  %89 = getelementptr inbounds nuw %"class.icu_77::RBBINode", ptr %88, i32 0, i32 2
  store ptr %87, ptr %89, align 8, !tbaa !36
  %90 = load ptr, ptr %6, align 8, !tbaa !22
  %91 = load i32, ptr %90, align 4, !tbaa !15
  %92 = call noundef signext i8 @_ZL9U_FAILURE10UErrorCode(i32 noundef %91)
  %93 = icmp ne i8 %92, 0
  br i1 %93, label %94, label %99

94:                                               ; preds = %81
  %95 = load ptr, ptr %8, align 8, !tbaa !23
  %96 = icmp eq ptr %95, null
  br i1 %96, label %98, label %97

97:                                               ; preds = %94
  call void @_ZN6icu_778RBBINodeD1Ev(ptr noundef nonnull align 8 dereferenceable(160) %95) #10
  call void @_ZN6icu_777UMemorydlEPv(ptr noundef %95) #10
  br label %98

98:                                               ; preds = %97, %94
  store ptr null, ptr %4, align 8
  store i32 1, ptr %9, align 4
  br label %137

99:                                               ; preds = %81
  %100 = load ptr, ptr %8, align 8, !tbaa !23
  %101 = load ptr, ptr %8, align 8, !tbaa !23
  %102 = getelementptr inbounds nuw %"class.icu_77::RBBINode", ptr %101, i32 0, i32 2
  %103 = load ptr, ptr %102, align 8, !tbaa !36
  %104 = getelementptr inbounds nuw %"class.icu_77::RBBINode", ptr %103, i32 0, i32 1
  store ptr %100, ptr %104, align 8, !tbaa !35
  br label %105

105:                                              ; preds = %99, %77
  %106 = getelementptr inbounds nuw %"class.icu_77::RBBINode", ptr %14, i32 0, i32 3
  %107 = load ptr, ptr %106, align 8, !tbaa !37
  %108 = icmp ne ptr %107, null
  br i1 %108, label %109, label %133

109:                                              ; preds = %105
  %110 = getelementptr inbounds nuw %"class.icu_77::RBBINode", ptr %14, i32 0, i32 3
  %111 = load ptr, ptr %110, align 8, !tbaa !37
  %112 = load ptr, ptr %6, align 8, !tbaa !22
  %113 = load i32, ptr %7, align 4, !tbaa !14
  %114 = add nsw i32 %113, 1
  %115 = call noundef ptr @_ZN6icu_778RBBINode9cloneTreeER10UErrorCodei(ptr noundef nonnull align 8 dereferenceable(160) %111, ptr noundef nonnull align 4 dereferenceable(4) %112, i32 noundef %114)
  %116 = load ptr, ptr %8, align 8, !tbaa !23
  %117 = getelementptr inbounds nuw %"class.icu_77::RBBINode", ptr %116, i32 0, i32 3
  store ptr %115, ptr %117, align 8, !tbaa !37
  %118 = load ptr, ptr %6, align 8, !tbaa !22
  %119 = load i32, ptr %118, align 4, !tbaa !15
  %120 = call noundef signext i8 @_ZL9U_FAILURE10UErrorCode(i32 noundef %119)
  %121 = icmp ne i8 %120, 0
  br i1 %121, label %122, label %127

122:                                              ; preds = %109
  %123 = load ptr, ptr %8, align 8, !tbaa !23
  %124 = icmp eq ptr %123, null
  br i1 %124, label %126, label %125

125:                                              ; preds = %122
  call void @_ZN6icu_778RBBINodeD1Ev(ptr noundef nonnull align 8 dereferenceable(160) %123) #10
  call void @_ZN6icu_777UMemorydlEPv(ptr noundef %123) #10
  br label %126

126:                                              ; preds = %125, %122
  store ptr null, ptr %4, align 8
  store i32 1, ptr %9, align 4
  br label %137

127:                                              ; preds = %109
  %128 = load ptr, ptr %8, align 8, !tbaa !23
  %129 = load ptr, ptr %8, align 8, !tbaa !23
  %130 = getelementptr inbounds nuw %"class.icu_77::RBBINode", ptr %129, i32 0, i32 3
  %131 = load ptr, ptr %130, align 8, !tbaa !37
  %132 = getelementptr inbounds nuw %"class.icu_77::RBBINode", ptr %131, i32 0, i32 1
  store ptr %128, ptr %132, align 8, !tbaa !35
  br label %133

133:                                              ; preds = %127, %105
  br label %134

134:                                              ; preds = %133, %46
  br label %135

135:                                              ; preds = %134, %41
  %136 = load ptr, ptr %8, align 8, !tbaa !23
  store ptr %136, ptr %4, align 8
  store i32 1, ptr %9, align 4
  br label %137

137:                                              ; preds = %135, %126, %98, %75, %63, %40
  call void @llvm.lifetime.end.p0(i64 8, ptr %8) #10
  br label %138

138:                                              ; preds = %137, %23, %19
  %139 = load ptr, ptr %4, align 8
  ret ptr %139

140:                                              ; preds = %71
  %141 = load ptr, ptr %12, align 8
  %142 = load i32, ptr %13, align 4
  %143 = insertvalue { ptr, i32 } poison, ptr %141, 0
  %144 = insertvalue { ptr, i32 } %143, i32 %142, 1
  resume { ptr, i32 } %144
}