; Function Attrs: mustprogress uwtable
define noundef ptr @_ZN6icu_778RBBINode9cloneTreeER10UErrorCodei(ptr noundef nonnull align 8 dereferenceable(160) %0, ptr noundef nonnull align 4 dereferenceable(4) %1, i32 noundef %2) local_unnamed_addr #1 align 2 personality ptr @__gxx_personality_v0 {
  %4 = load i32, ptr %1, align 4, !tbaa !13
  %5 = icmp slt i32 %4, 1
  br i1 %5, label %6, label %common.ret48

6:                                                ; preds = %3
  %7 = icmp sgt i32 %2, 3500
  br i1 %7, label %8, label %9

8:                                                ; preds = %6
  store i32 31, ptr %1, align 4, !tbaa !13
  br label %common.ret48

9:                                                ; preds = %6
  %10 = load i32, ptr %0, align 8, !tbaa !18
  switch i32 %10, label %18 [
    i32 2, label %11
    i32 1, label %common.ret48
  ]

common.ret48:                                     ; preds = %.thread, %30, %40, %52, %27, %9, %53, %43, %3, %8, %11
  %common.ret48.op = phi ptr [ %spec.select, %11 ], [ null, %8 ], [ null, %3 ], [ null, %30 ], [ null, %40 ], [ null, %52 ], [ null, %27 ], [ %19, %53 ], [ %19, %43 ], [ %0, %9 ], [ null, %.thread ]
  ret ptr %common.ret48.op

11:                                               ; preds = %9
  %12 = getelementptr inbounds nuw i8, ptr %0, i64 16
  %13 = load ptr, ptr %12, align 8, !tbaa !39
  %14 = add nsw i32 %2, 1
  %15 = tail call noundef ptr @_ZN6icu_778RBBINode9cloneTreeER10UErrorCodei(ptr noundef nonnull align 8 dereferenceable(160) %13, ptr noundef nonnull align 4 dereferenceable(4) %1, i32 noundef %14)
  %16 = load i32, ptr %1, align 4, !tbaa !13
  %17 = icmp slt i32 %16, 1
  %spec.select = select i1 %17, ptr %15, ptr null
  br label %common.ret48

18:                                               ; preds = %9
  %19 = tail call noundef ptr @_ZN6icu_777UMemorynwEm(i64 noundef 160) #12
  %20 = icmp eq ptr %19, null
  br i1 %20, label %.thread, label %21

21:                                               ; preds = %18
  invoke void @_ZN6icu_778RBBINodeC1ERKS0_R10UErrorCode(ptr noundef nonnull align 8 dereferenceable(160) %19, ptr noundef nonnull align 8 dereferenceable(160) %0, ptr noundef nonnull align 4 dereferenceable(4) %1)
          to label %22 unwind label %28

22:                                               ; preds = %21
  %23 = load i32, ptr %1, align 4, !tbaa !13
  %24 = icmp slt i32 %23, 1
  br i1 %24, label %31, label %27

.thread:                                          ; preds = %18
  %25 = load i32, ptr %1, align 4, !tbaa !13
  %26 = icmp slt i32 %25, 1
  br i1 %26, label %30, label %common.ret48

27:                                               ; preds = %22
  tail call void @_ZN6icu_778RBBINodeD1Ev(ptr noundef nonnull align 8 dereferenceable(160) %19) #12
  tail call void @_ZN6icu_777UMemorydlEPv(ptr noundef nonnull %19) #12
  br label %common.ret48

28:                                               ; preds = %21
  %29 = landingpad { ptr, i32 }
          cleanup
  tail call void @_ZN6icu_777UMemorydlEPv(ptr noundef nonnull %19) #12
  resume { ptr, i32 } %29

30:                                               ; preds = %.thread
  store i32 7, ptr %1, align 4, !tbaa !13
  br label %common.ret48

31:                                               ; preds = %22
  %32 = getelementptr inbounds nuw i8, ptr %0, i64 16
  %33 = load ptr, ptr %32, align 8, !tbaa !39
  %.not40 = icmp eq ptr %33, null
  br i1 %.not40, label %43, label %34

34:                                               ; preds = %31
  %35 = add nsw i32 %2, 1
  %36 = tail call noundef ptr @_ZN6icu_778RBBINode9cloneTreeER10UErrorCodei(ptr noundef nonnull align 8 dereferenceable(160) %33, ptr noundef nonnull align 4 dereferenceable(4) %1, i32 noundef %35)
  %37 = getelementptr inbounds nuw i8, ptr %19, i64 16
  store ptr %36, ptr %37, align 8, !tbaa !39
  %38 = load i32, ptr %1, align 4, !tbaa !13
  %39 = icmp slt i32 %38, 1
  br i1 %39, label %41, label %40

40:                                               ; preds = %34
  tail call void @_ZN6icu_778RBBINodeD1Ev(ptr noundef nonnull align 8 dereferenceable(160) %19) #12
  tail call void @_ZN6icu_777UMemorydlEPv(ptr noundef nonnull %19) #12
  br label %common.ret48

41:                                               ; preds = %34
  %42 = getelementptr inbounds nuw i8, ptr %36, i64 8
  store ptr %19, ptr %42, align 8, !tbaa !40
  br label %43

43:                                               ; preds = %41, %31
  %44 = getelementptr inbounds nuw i8, ptr %0, i64 24
  %45 = load ptr, ptr %44, align 8, !tbaa !41
  %.not42 = icmp eq ptr %45, null
  br i1 %.not42, label %common.ret48, label %46

46:                                               ; preds = %43
  %47 = add nsw i32 %2, 1
  %48 = tail call noundef ptr @_ZN6icu_778RBBINode9cloneTreeER10UErrorCodei(ptr noundef nonnull align 8 dereferenceable(160) %45, ptr noundef nonnull align 4 dereferenceable(4) %1, i32 noundef %47)
  %49 = getelementptr inbounds nuw i8, ptr %19, i64 24
  store ptr %48, ptr %49, align 8, !tbaa !41
  %50 = load i32, ptr %1, align 4, !tbaa !13
  %51 = icmp slt i32 %50, 1
  br i1 %51, label %53, label %52

52:                                               ; preds = %46
  tail call void @_ZN6icu_778RBBINodeD1Ev(ptr noundef nonnull align 8 dereferenceable(160) %19) #12
  tail call void @_ZN6icu_777UMemorydlEPv(ptr noundef nonnull %19) #12
  br label %common.ret48

53:                                               ; preds = %46
  %54 = getelementptr inbounds nuw i8, ptr %48, i64 8
  store ptr %19, ptr %54, align 8, !tbaa !40
  br label %common.ret48
}